; Function Attrs: mustprogress uwtable
define hidden noundef ptr @pj_stere(ptr noundef %0) local_unnamed_addr #0 {
  %.not = icmp eq ptr %0, null
  br i1 %.not, label %22, label %2

2:                                                ; preds = %1
  %3 = tail call noalias dereferenceable_or_null(40) ptr @calloc(i64 noundef 1, i64 noundef 40) #7
  %4 = icmp eq ptr %3, null
  br i1 %4, label %5, label %7

5:                                                ; preds = %2
  %6 = tail call noundef ptr @_Z21pj_default_destructorP8PJconstsi(ptr noundef nonnull %0, i32 noundef 4096)
  br label %_Z34pj_projection_specific_setup_stereP8PJconsts.exit

7:                                                ; preds = %2
  %8 = getelementptr inbounds nuw i8, ptr %0, i64 88
  store ptr %3, ptr %8, align 8, !tbaa !3
  %9 = load ptr, ptr %0, align 8, !tbaa !36
  %10 = getelementptr inbounds nuw i8, ptr %0, i64 24
  %11 = load ptr, ptr %10, align 8, !tbaa !37
  %12 = tail call i64 @_Z8pj_paramP6pj_ctxP8ARG_listPKc(ptr noundef %9, ptr noundef %11, ptr noundef nonnull @.str.1)
  %13 = and i64 %12, 4294967295
  %.not.i = icmp eq i64 %13, 0
  br i1 %.not.i, label %19, label %14

14:                                               ; preds = %7
  %15 = load ptr, ptr %0, align 8, !tbaa !36
  %16 = load ptr, ptr %10, align 8, !tbaa !37
  %17 = tail call i64 @_Z8pj_paramP6pj_ctxP8ARG_listPKc(ptr noundef %15, ptr noundef %16, ptr noundef nonnull @.str.2)
  %18 = bitcast i64 %17 to double
  br label %19

19:                                               ; preds = %14, %7
  %20 = phi double [ %18, %14 ], [ 0x3FF921FB54442D18, %7 ]
  store double %20, ptr %3, align 8, !tbaa !38
  %21 = tail call fastcc noundef ptr @_ZL11stere_setupP8PJconsts(ptr noundef nonnull %0)
  br label %_Z34pj_projection_specific_setup_stereP8PJconsts.exit

22:                                               ; preds = %1
  %23 = tail call noundef ptr @_Z6pj_newv()
  %24 = icmp eq ptr %23, null
  br i1 %24, label %_Z34pj_projection_specific_setup_stereP8PJconsts.exit, label %25

25:                                               ; preds = %22
  %26 = getelementptr inbounds nuw i8, ptr %23, i64 8
  store ptr @.str, ptr %26, align 8, !tbaa !40
  %27 = getelementptr inbounds nuw i8, ptr %23, i64 16
  store ptr @_ZL9des_stere, ptr %27, align 8, !tbaa !41
  %28 = getelementptr inbounds nuw i8, ptr %23, i64 360
  store i32 1, ptr %28, align 8, !tbaa !42
  %29 = getelementptr inbounds nuw i8, ptr %23, i64 380
  store i32 4, ptr %29, align 4, !tbaa !43
  %30 = getelementptr inbounds nuw i8, ptr %23, i64 384
  store i32 1, ptr %30, align 8, !tbaa !44
  br label %_Z34pj_projection_specific_setup_stereP8PJconsts.exit

_Z34pj_projection_specific_setup_stereP8PJconsts.exit: ; preds = %19, %5, %22, %25
  %.0 = phi ptr [ %23, %25 ], [ null, %22 ], [ %6, %5 ], [ %0, %19 ]
  ret ptr %.0
}